target datalayout = "e-m:e-p270:32:32-p271:32:32-p272:64:64-i64:64-i128:128-f80:128-n8:16:32:64-S128"
target triple = "x86_64-pc-linux-gnu"

@PyExc_RuntimeError = external global ptr, align 8
@.str.223 = private unnamed_addr constant [27 x i8] c"cannot get allocators name\00", align 1

; Function Attrs: nounwind uwtable
define internal ptr @test_pymem_getallocatorsname(ptr noundef %0, ptr noundef %1) #0 {
  %3 = alloca ptr, align 8
  %4 = alloca ptr, align 8
  %5 = alloca ptr, align 8
  %6 = alloca ptr, align 8
  %7 = alloca i32, align 4
  store ptr %0, ptr %4, align 8, !tbaa !3
  store ptr %1, ptr %5, align 8, !tbaa !3
  call void @llvm.lifetime.start.p0(i64 8, ptr %6) #10
  %8 = call ptr @_PyMem_GetCurrentAllocatorName()
  store ptr %8, ptr %6, align 8, !tbaa !46
  %9 = load ptr, ptr %6, align 8, !tbaa !46
  %10 = icmp eq ptr %9, null
  br i1 %10, label %11, label %13

11:                                               ; preds = %2
  %12 = load ptr, ptr @PyExc_RuntimeError, align 8, !tbaa !3
  call void @PyErr_SetString(ptr noundef %12, ptr noundef @.str.223)
  store ptr null, ptr %3, align 8
  store i32 1, ptr %7, align 4
  br label %16

13:                                               ; preds = %2
  %14 = load ptr, ptr %6, align 8, !tbaa !46
  %15 = call ptr @PyUnicode_FromString(ptr noundef %14)
  store ptr %15, ptr %3, align 8
  store i32 1, ptr %7, align 4
  br label %16

16:                                               ; preds = %13, %11
  call void @llvm.lifetime.end.p0(i64 8, ptr %6) #10
  %17 = load ptr, ptr %3, align 8
  ret ptr %17
}