; Function Attrs: nounwind uwtable
define internal ptr @test_pymem_getallocatorsname(ptr readnone captures(none) %0, ptr readnone captures(none) %1) #0 {
  %3 = tail call ptr @_PyMem_GetCurrentAllocatorName() #11
  %4 = icmp eq ptr %3, null
  br i1 %4, label %5, label %7

5:                                                ; preds = %2
  %6 = load ptr, ptr @PyExc_RuntimeError, align 8, !tbaa !9
  tail call void @PyErr_SetString(ptr noundef %6, ptr noundef nonnull @.str.223) #11
  br label %9

7:                                                ; preds = %2
  %8 = tail call ptr @PyUnicode_FromString(ptr noundef nonnull %3) #11
  br label %9

9:                                                ; preds = %7, %5
  %.0 = phi ptr [ null, %5 ], [ %8, %7 ]
  ret ptr %.0
}